; Function Attrs: nounwind uwtable
define void @Gia_ManOrigIdsInit(ptr noundef captures(none) %0) local_unnamed_addr #0 {
  %2 = getelementptr inbounds nuw i8, ptr %0, i64 696
  %3 = load ptr, ptr %2, align 8, !tbaa !3
  %4 = icmp eq ptr %3, null
  br i1 %4, label %Vec_IntFreeP.exit, label %5

5:                                                ; preds = %1
  %6 = getelementptr inbounds nuw i8, ptr %3, i64 8
  %7 = load ptr, ptr %6, align 8, !tbaa !8
  %.not.i = icmp eq ptr %7, null
  br i1 %.not.i, label %10, label %.thread.i

.thread.i:                                        ; preds = %5
  tail call void @free(ptr noundef nonnull %7) #31
  %8 = load ptr, ptr %2, align 8, !tbaa !3
  %9 = getelementptr inbounds nuw i8, ptr %8, i64 8
  store ptr null, ptr %9, align 8, !tbaa !8
  br label %10

10:                                               ; preds = %.thread.i, %5
  %11 = phi ptr [ %8, %.thread.i ], [ %3, %5 ]
  tail call void @free(ptr noundef nonnull %11) #31
  br label %Vec_IntFreeP.exit

Vec_IntFreeP.exit:                                ; preds = %1, %10
  %12 = getelementptr i8, ptr %0, i64 24
  %.val = load i32, ptr %12, align 8, !tbaa !12
  %13 = tail call noalias dereferenceable_or_null(16) ptr @malloc(i64 noundef 16) #32
  %14 = add i32 %.val, -1
  %or.cond.i.i = icmp ult i32 %14, 15
  %spec.store.select.i.i = select i1 %or.cond.i.i, i32 16, i32 %.val
  %15 = getelementptr inbounds nuw i8, ptr %13, i64 4
  store i32 %spec.store.select.i.i, ptr %13, align 8, !tbaa !30
  %.not.i.i = icmp eq i32 %spec.store.select.i.i, 0
  br i1 %.not.i.i, label %Vec_IntAlloc.exit.i, label %16

16:                                               ; preds = %Vec_IntFreeP.exit
  %17 = sext i32 %spec.store.select.i.i to i64
  %18 = shl nsw i64 %17, 2
  %19 = tail call noalias ptr @malloc(i64 noundef %18) #32
  br label %Vec_IntAlloc.exit.i

Vec_IntAlloc.exit.i:                              ; preds = %16, %Vec_IntFreeP.exit
  %20 = phi ptr [ %19, %16 ], [ null, %Vec_IntFreeP.exit ]
  %21 = getelementptr inbounds nuw i8, ptr %13, i64 8
  store ptr %20, ptr %21, align 8, !tbaa !8
  store i32 %.val, ptr %15, align 4, !tbaa !31
  %22 = icmp sgt i32 %.val, 0
  br i1 %22, label %.lr.ph.preheader.i, label %Vec_IntStartNatural.exit

.lr.ph.preheader.i:                               ; preds = %Vec_IntAlloc.exit.i
  %wide.trip.count.i = zext nneg i32 %.val to i64
  br label %.lr.ph.i

.lr.ph.i:                                         ; preds = %.lr.ph.i, %.lr.ph.preheader.i
  %indvars.iv.i = phi i64 [ 0, %.lr.ph.preheader.i ], [ %indvars.iv.next.i, %.lr.ph.i ]
  %23 = getelementptr inbounds nuw i32, ptr %20, i64 %indvars.iv.i
  %24 = trunc nuw nsw i64 %indvars.iv.i to i32
  store i32 %24, ptr %23, align 4, !tbaa !32
  %indvars.iv.next.i = add nuw nsw i64 %indvars.iv.i, 1
  %exitcond.not.i = icmp eq i64 %indvars.iv.next.i, %wide.trip.count.i
  br i1 %exitcond.not.i, label %Vec_IntStartNatural.exit, label %.lr.ph.i, !llvm.loop !33

Vec_IntStartNatural.exit:                         ; preds = %.lr.ph.i, %Vec_IntAlloc.exit.i
  store ptr %13, ptr %2, align 8, !tbaa !35
  ret void
}